; Function Attrs: nounwind sspstrong uwtable
define hidden void @rb_module_check_initializable(i64 noundef %0) local_unnamed_addr #0 {
  %2 = inttoptr i64 %0 to ptr
  %3 = load i64, ptr %2, align 8, !tbaa !35
  %4 = and i64 %3, 8192
  %.not = icmp eq i64 %4, 0
  br i1 %.not, label %5, label %7

5:                                                ; preds = %1
  %6 = load i64, ptr @rb_eTypeError, align 8, !tbaa !29
  tail call void (i64, ptr, ...) @rb_raise(i64 noundef %6, ptr noundef nonnull @.str.3) #21
  unreachable

7:                                                ; preds = %1
  ret void
}